(i__main__
LogFile
p0
(dp1
S'_installed_files'
p2
(dp3
S'../../../Simulation/DetSim/TaoSimAna/amd64_linux26/libTaoSimAna.so'
p4
S'../../../../InstallArea/amd64_linux26/lib/libTaoSimAna.so'
p5
sS'../../../Simulation/DetSim/ChargeTemplatePos/amd64_linux26/libChargeTemplatePos.so'
p6
S'../../../../InstallArea/amd64_linux26/lib/libChargeTemplatePos.so'
p7
sS'../../../Reconstruction/ChargeTemplatePos/amd64_linux26/libChargeTemplatePos.so'
p8
S'../../../InstallArea/amd64_linux26/lib/libChargeTemplatePos.so'
p9
sS'../../Reconstruction/ChargeTemplatePos/ChargeTemplatePos'
p10
(dp11
S'../../../Reconstruction/ChargeTemplatePos/ChargeTemplatePos/ChargeTemplate.h'
p12
S'../../../InstallArea/include/ChargeTemplatePos/ChargeTemplate.h'
p13
sS'../../../Reconstruction/ChargeTemplatePos/ChargeTemplatePos/ChargeTemplateRec.h'
p14
S'../../../InstallArea/include/ChargeTemplatePos/ChargeTemplateRec.h'
p15
sS'../../../Reconstruction/ChargeTemplatePos/ChargeTemplatePos/TaoSiPM.h'
p16
S'../../../InstallArea/include/ChargeTemplatePos/TaoSiPM.h'
p17
ssS'../../Simulation/DetSim/ChargeTemplatePos/ChargeTemplatePos'
p18
(dp19
S'../../../Simulation/DetSim/ChargeTemplatePos/ChargeTemplatePos/Functions.h'
p20
S'../../../../InstallArea/include/ChargeTemplatePos/Functions.h'
p21
sS'../../../Simulation/DetSim/ChargeTemplatePos/ChargeTemplatePos/ChargeTemplate.h'
p22
S'../../../../InstallArea/include/ChargeTemplatePos/ChargeTemplate.h'
p23
sS'../../../Simulation/DetSim/ChargeTemplatePos/ChargeTemplatePos/MakeChargeTemplate.h'
p24
S'../../../../InstallArea/include/ChargeTemplatePos/MakeChargeTemplate.h'
p25
sS'../../../Simulation/DetSim/ChargeTemplatePos/ChargeTemplatePos/ChargeTemplateRec.h'
p26
S'../../../../InstallArea/include/ChargeTemplatePos/ChargeTemplateRec.h'
p27
sS'../../../Simulation/DetSim/ChargeTemplatePos/ChargeTemplatePos/ElecEffects.h'
p28
S'../../../../InstallArea/include/ChargeTemplatePos/ElecEffects.h'
p29
sS'../../../Simulation/DetSim/ChargeTemplatePos/ChargeTemplatePos/TaoSiPM.h'
p30
S'../../../../InstallArea/include/ChargeTemplatePos/TaoSiPM.h'
p31
sS'../../../Simulation/DetSim/ChargeTemplatePos/ChargeTemplatePos/test.C'
p32
S'../../../../InstallArea/include/ChargeTemplatePos/test.C'
p33
sssb.